; Function Attrs: mustprogress uwtable
define noundef i32 @zmq_poller_modify_fd(ptr noundef %0, i32 noundef %1, i16 noundef signext %2) local_unnamed_addr #1 {
  %.not.i.i = icmp eq ptr %0, null
  br i1 %.not.i.i, label %_ZL33check_poller_fd_registration_argsPvi.exit.thread, label %4

4:                                                ; preds = %3
  %5 = tail call noundef zeroext i1 @_ZNK3zmq15socket_poller_t9check_tagEv(ptr noundef nonnull align 8 dereferenceable(56) %0)
  br i1 %5, label %_ZL12check_pollerPv.exit.i, label %_ZL33check_poller_fd_registration_argsPvi.exit.thread

_ZL12check_pollerPv.exit.i:                       ; preds = %4
  %6 = icmp eq i32 %1, -1
  br i1 %6, label %_ZL33check_poller_fd_registration_argsPvi.exit.thread, label %_ZL33check_poller_fd_registration_argsPvi.exit

_ZL33check_poller_fd_registration_argsPvi.exit.thread: ; preds = %3, %4, %_ZL12check_pollerPv.exit.i
  %.sink.i = phi i32 [ 14, %3 ], [ 14, %4 ], [ 9, %_ZL12check_pollerPv.exit.i ]
  %7 = tail call ptr @__errno_location() #20
  store i32 %.sink.i, ptr %7, align 4, !tbaa !3
  br label %10

_ZL33check_poller_fd_registration_argsPvi.exit:   ; preds = %_ZL12check_pollerPv.exit.i
  %.not.i = icmp ult i16 %2, 16
  br i1 %.not.i, label %_ZL12check_eventss.exit, label %_ZL12check_eventss.exit.thread

_ZL12check_eventss.exit.thread:                   ; preds = %_ZL33check_poller_fd_registration_argsPvi.exit
  %8 = tail call ptr @__errno_location() #20
  store i32 22, ptr %8, align 4, !tbaa !3
  br label %10

_ZL12check_eventss.exit:                          ; preds = %_ZL33check_poller_fd_registration_argsPvi.exit
  %9 = tail call noundef i32 @_ZN3zmq15socket_poller_t9modify_fdEis(ptr noundef nonnull align 8 dereferenceable(56) %0, i32 noundef %1, i16 noundef signext %2)
  br label %10

10:                                               ; preds = %_ZL12check_eventss.exit.thread, %_ZL33check_poller_fd_registration_argsPvi.exit.thread, %_ZL12check_eventss.exit
  %.0 = phi i32 [ %9, %_ZL12check_eventss.exit ], [ -1, %_ZL33check_poller_fd_registration_argsPvi.exit.thread ], [ -1, %_ZL12check_eventss.exit.thread ]
  ret i32 %.0
}